; Function Attrs: mustprogress uwtable
define noundef i32 @zmq_poller_modify(ptr noundef %0, ptr noundef %1, i16 noundef signext %2) local_unnamed_addr #1 {
  %.not.i.i = icmp eq ptr %0, null
  br i1 %.not.i.i, label %_ZL30check_poller_registration_argsPvS_.exit.thread, label %4

4:                                                ; preds = %3
  %5 = tail call noundef zeroext i1 @_ZNK3zmq15socket_poller_t9check_tagEv(ptr noundef nonnull align 8 dereferenceable(56) %0)
  br i1 %5, label %_ZL12check_pollerPv.exit.i, label %_ZL30check_poller_registration_argsPvS_.exit.thread

_ZL12check_pollerPv.exit.i:                       ; preds = %4
  %.not.i = icmp eq ptr %1, null
  br i1 %.not.i, label %_ZL30check_poller_registration_argsPvS_.exit.thread, label %6

6:                                                ; preds = %_ZL12check_pollerPv.exit.i
  %7 = tail call noundef zeroext i1 @_ZNK3zmq13socket_base_t9check_tagEv(ptr noundef nonnull align 8 dereferenceable(1825) %1)
  br i1 %7, label %_ZL30check_poller_registration_argsPvS_.exit, label %_ZL30check_poller_registration_argsPvS_.exit.thread

_ZL30check_poller_registration_argsPvS_.exit.thread: ; preds = %3, %4, %_ZL12check_pollerPv.exit.i, %6
  %.sink.i = phi i32 [ 14, %3 ], [ 14, %4 ], [ 88, %6 ], [ 88, %_ZL12check_pollerPv.exit.i ]
  %8 = tail call ptr @__errno_location() #20
  store i32 %.sink.i, ptr %8, align 4, !tbaa !3
  br label %11

_ZL30check_poller_registration_argsPvS_.exit:     ; preds = %6
  %.not.i7 = icmp ult i16 %2, 16
  br i1 %.not.i7, label %_ZL12check_eventss.exit, label %_ZL12check_eventss.exit.thread

_ZL12check_eventss.exit.thread:                   ; preds = %_ZL30check_poller_registration_argsPvS_.exit
  %9 = tail call ptr @__errno_location() #20
  store i32 22, ptr %9, align 4, !tbaa !3
  br label %11

_ZL12check_eventss.exit:                          ; preds = %_ZL30check_poller_registration_argsPvS_.exit
  %10 = tail call noundef i32 @_ZN3zmq15socket_poller_t6modifyEPKNS_13socket_base_tEs(ptr noundef nonnull align 8 dereferenceable(56) %0, ptr noundef nonnull %1, i16 noundef signext %2)
  br label %11

11:                                               ; preds = %_ZL12check_eventss.exit.thread, %_ZL30check_poller_registration_argsPvS_.exit.thread, %_ZL12check_eventss.exit
  %.0 = phi i32 [ %10, %_ZL12check_eventss.exit ], [ -1, %_ZL30check_poller_registration_argsPvS_.exit.thread ], [ -1, %_ZL12check_eventss.exit.thread ]
  ret i32 %.0
}